target datalayout = "e-m:e-p270:32:32-p271:32:32-p272:64:64-i64:64-i128:128-f80:128-n8:16:32:64-S128"
target triple = "x86_64-pc-linux-gnu"

; Function Attrs: inlinehint nounwind uwtable
define internal void @rgb32tobgr24_c(ptr noundef %0, ptr noundef %1, i32 noundef %2) #4 {
  %4 = alloca ptr, align 8
  %5 = alloca ptr, align 8
  %6 = alloca i32, align 4
  %7 = alloca ptr, align 8
  %8 = alloca ptr, align 8
  %9 = alloca ptr, align 8
  store ptr %0, ptr %4, align 8, !tbaa !4
  store ptr %1, ptr %5, align 8, !tbaa !4
  store i32 %2, ptr %6, align 4, !tbaa !9
  call void @llvm.lifetime.start.p0(i64 8, ptr %7) #5
  %10 = load ptr, ptr %5, align 8, !tbaa !4
  store ptr %10, ptr %7, align 8, !tbaa !4
  call void @llvm.lifetime.start.p0(i64 8, ptr %8) #5
  %11 = load ptr, ptr %4, align 8, !tbaa !4
  store ptr %11, ptr %8, align 8, !tbaa !4
  call void @llvm.lifetime.start.p0(i64 8, ptr %9) #5
  %12 = load ptr, ptr %8, align 8, !tbaa !4
  %13 = load i32, ptr %6, align 4, !tbaa !9
  %14 = sext i32 %13 to i64
  %15 = getelementptr inbounds i8, ptr %12, i64 %14
  store ptr %15, ptr %9, align 8, !tbaa !4
  br label %16

16:                                               ; preds = %20, %3
  %17 = load ptr, ptr %8, align 8, !tbaa !4
  %18 = load ptr, ptr %9, align 8, !tbaa !4
  %19 = icmp ult ptr %17, %18
  br i1 %19, label %20, label %38

20:                                               ; preds = %16
  %21 = load ptr, ptr %8, align 8, !tbaa !4
  %22 = getelementptr inbounds nuw i8, ptr %21, i32 1
  store ptr %22, ptr %8, align 8, !tbaa !4
  %23 = load i8, ptr %21, align 1, !tbaa !13
  %24 = load ptr, ptr %7, align 8, !tbaa !4
  %25 = getelementptr inbounds nuw i8, ptr %24, i32 1
  store ptr %25, ptr %7, align 8, !tbaa !4
  store i8 %23, ptr %24, align 1, !tbaa !13
  %26 = load ptr, ptr %8, align 8, !tbaa !4
  %27 = getelementptr inbounds nuw i8, ptr %26, i32 1
  store ptr %27, ptr %8, align 8, !tbaa !4
  %28 = load i8, ptr %26, align 1, !tbaa !13
  %29 = load ptr, ptr %7, align 8, !tbaa !4
  %30 = getelementptr inbounds nuw i8, ptr %29, i32 1
  store ptr %30, ptr %7, align 8, !tbaa !4
  store i8 %28, ptr %29, align 1, !tbaa !13
  %31 = load ptr, ptr %8, align 8, !tbaa !4
  %32 = getelementptr inbounds nuw i8, ptr %31, i32 1
  store ptr %32, ptr %8, align 8, !tbaa !4
  %33 = load i8, ptr %31, align 1, !tbaa !13
  %34 = load ptr, ptr %7, align 8, !tbaa !4
  %35 = getelementptr inbounds nuw i8, ptr %34, i32 1
  store ptr %35, ptr %7, align 8, !tbaa !4
  store i8 %33, ptr %34, align 1, !tbaa !13
  %36 = load ptr, ptr %8, align 8, !tbaa !4
  %37 = getelementptr inbounds nuw i8, ptr %36, i32 1
  store ptr %37, ptr %8, align 8, !tbaa !4
  br label %16, !llvm.loop !63

38:                                               ; preds = %16
  call void @llvm.lifetime.end.p0(i64 8, ptr %9) #5
  call void @llvm.lifetime.end.p0(i64 8, ptr %8) #5
  call void @llvm.lifetime.end.p0(i64 8, ptr %7) #5
  ret void
}